; Function Attrs: mustprogress nofree norecurse nosync nounwind sspstrong willreturn memory(argmem: readwrite) uwtable
define dso_local void @aesenc_MC_gen(ptr noundef writeonly captures(none) initializes((0, 16)) %r, ptr noundef readonly captures(none) %st) local_unnamed_addr #0 {
entry:
  %0 = load i8, ptr %st, align 1
  %idxprom9.i = zext i8 %0 to i64
  %arrayidx10.i = getelementptr [256 x i32], ptr @AES_mc_rot, i64 0, i64 %idxprom9.i
  %1 = load i32, ptr %arrayidx10.i, align 4
  %arrayidx13.i = getelementptr i8, ptr %st, i64 1
  %2 = load i8, ptr %arrayidx13.i, align 1
  %idxprom14.i = zext i8 %2 to i64
  %arrayidx15.i = getelementptr [256 x i32], ptr @AES_mc_rot, i64 0, i64 %idxprom14.i
  %3 = load i32, ptr %arrayidx15.i, align 4
  %or.i.i = tail call noundef i32 @llvm.fshl.i32(i32 %3, i32 %3, i32 8)
  %xor16.i = xor i32 %or.i.i, %1
  %arrayidx19.i = getelementptr i8, ptr %st, i64 2
  %4 = load i8, ptr %arrayidx19.i, align 1
  %idxprom20.i = zext i8 %4 to i64
  %arrayidx21.i = getelementptr [256 x i32], ptr @AES_mc_rot, i64 0, i64 %idxprom20.i
  %5 = load i32, ptr %arrayidx21.i, align 4
  %or.i49.i = tail call noundef i32 @llvm.fshl.i32(i32 %5, i32 %5, i32 16)
  %xor23.i = xor i32 %xor16.i, %or.i49.i
  %arrayidx26.i = getelementptr i8, ptr %st, i64 3
  %6 = load i8, ptr %arrayidx26.i, align 1
  %idxprom27.i = zext i8 %6 to i64
  %arrayidx28.i = getelementptr [256 x i32], ptr @AES_mc_rot, i64 0, i64 %idxprom27.i
  %7 = load i32, ptr %arrayidx28.i, align 4
  %or.i50.i = tail call noundef i32 @llvm.fshl.i32(i32 %7, i32 %7, i32 24)
  %xor30.i = xor i32 %xor23.i, %or.i50.i
  store i32 %xor30.i, ptr %r, align 4
  %arrayidx37.i = getelementptr i8, ptr %st, i64 4
  %8 = load i8, ptr %arrayidx37.i, align 1
  %idxprom38.i = zext i8 %8 to i64
  %arrayidx39.i = getelementptr [256 x i32], ptr @AES_mc_rot, i64 0, i64 %idxprom38.i
  %9 = load i32, ptr %arrayidx39.i, align 4
  %arrayidx42.i = getelementptr i8, ptr %st, i64 5
  %10 = load i8, ptr %arrayidx42.i, align 1
  %idxprom43.i = zext i8 %10 to i64
  %arrayidx44.i = getelementptr [256 x i32], ptr @AES_mc_rot, i64 0, i64 %idxprom43.i
  %11 = load i32, ptr %arrayidx44.i, align 4
  %or.i51.i = tail call noundef i32 @llvm.fshl.i32(i32 %11, i32 %11, i32 8)
  %xor46.i = xor i32 %or.i51.i, %9
  %arrayidx49.i = getelementptr i8, ptr %st, i64 6
  %12 = load i8, ptr %arrayidx49.i, align 1
  %idxprom50.i = zext i8 %12 to i64
  %arrayidx51.i = getelementptr [256 x i32], ptr @AES_mc_rot, i64 0, i64 %idxprom50.i
  %13 = load i32, ptr %arrayidx51.i, align 4
  %or.i52.i = tail call noundef i32 @llvm.fshl.i32(i32 %13, i32 %13, i32 16)
  %xor53.i = xor i32 %xor46.i, %or.i52.i
  %arrayidx56.i = getelementptr i8, ptr %st, i64 7
  %14 = load i8, ptr %arrayidx56.i, align 1
  %idxprom57.i = zext i8 %14 to i64
  %arrayidx58.i = getelementptr [256 x i32], ptr @AES_mc_rot, i64 0, i64 %idxprom57.i
  %15 = load i32, ptr %arrayidx58.i, align 4
  %or.i53.i = tail call noundef i32 @llvm.fshl.i32(i32 %15, i32 %15, i32 24)
  %xor60.i = xor i32 %xor53.i, %or.i53.i
  %arrayidx66.i = getelementptr i8, ptr %r, i64 4
  store i32 %xor60.i, ptr %arrayidx66.i, align 4
  %arrayidx69.i = getelementptr i8, ptr %st, i64 8
  %16 = load i8, ptr %arrayidx69.i, align 1
  %idxprom70.i = zext i8 %16 to i64
  %arrayidx71.i = getelementptr [256 x i32], ptr @AES_mc_rot, i64 0, i64 %idxprom70.i
  %17 = load i32, ptr %arrayidx71.i, align 4
  %arrayidx74.i = getelementptr i8, ptr %st, i64 9
  %18 = load i8, ptr %arrayidx74.i, align 1
  %idxprom75.i = zext i8 %18 to i64
  %arrayidx76.i = getelementptr [256 x i32], ptr @AES_mc_rot, i64 0, i64 %idxprom75.i
  %19 = load i32, ptr %arrayidx76.i, align 4
  %or.i54.i = tail call noundef i32 @llvm.fshl.i32(i32 %19, i32 %19, i32 8)
  %xor78.i = xor i32 %or.i54.i, %17
  %arrayidx81.i = getelementptr i8, ptr %st, i64 10
  %20 = load i8, ptr %arrayidx81.i, align 1
  %idxprom82.i = zext i8 %20 to i64
  %arrayidx83.i = getelementptr [256 x i32], ptr @AES_mc_rot, i64 0, i64 %idxprom82.i
  %21 = load i32, ptr %arrayidx83.i, align 4
  %or.i55.i = tail call noundef i32 @llvm.fshl.i32(i32 %21, i32 %21, i32 16)
  %xor85.i = xor i32 %xor78.i, %or.i55.i
  %arrayidx88.i = getelementptr i8, ptr %st, i64 11
  %22 = load i8, ptr %arrayidx88.i, align 1
  %idxprom89.i = zext i8 %22 to i64
  %arrayidx90.i = getelementptr [256 x i32], ptr @AES_mc_rot, i64 0, i64 %idxprom89.i
  %23 = load i32, ptr %arrayidx90.i, align 4
  %or.i56.i = tail call noundef i32 @llvm.fshl.i32(i32 %23, i32 %23, i32 24)
  %xor92.i = xor i32 %xor85.i, %or.i56.i
  %arrayidx98.i = getelementptr i8, ptr %r, i64 8
  store i32 %xor92.i, ptr %arrayidx98.i, align 4
  %arrayidx101.i = getelementptr i8, ptr %st, i64 12
  %24 = load i8, ptr %arrayidx101.i, align 1
  %idxprom102.i = zext i8 %24 to i64
  %arrayidx103.i = getelementptr [256 x i32], ptr @AES_mc_rot, i64 0, i64 %idxprom102.i
  %25 = load i32, ptr %arrayidx103.i, align 4
  %arrayidx106.i = getelementptr i8, ptr %st, i64 13
  %26 = load i8, ptr %arrayidx106.i, align 1
  %idxprom107.i = zext i8 %26 to i64
  %arrayidx108.i = getelementptr [256 x i32], ptr @AES_mc_rot, i64 0, i64 %idxprom107.i
  %27 = load i32, ptr %arrayidx108.i, align 4
  %or.i57.i = tail call noundef i32 @llvm.fshl.i32(i32 %27, i32 %27, i32 8)
  %xor110.i = xor i32 %or.i57.i, %25
  %arrayidx113.i = getelementptr i8, ptr %st, i64 14
  %28 = load i8, ptr %arrayidx113.i, align 1
  %idxprom114.i = zext i8 %28 to i64
  %arrayidx115.i = getelementptr [256 x i32], ptr @AES_mc_rot, i64 0, i64 %idxprom114.i
  %29 = load i32, ptr %arrayidx115.i, align 4
  %or.i58.i = tail call noundef i32 @llvm.fshl.i32(i32 %29, i32 %29, i32 16)
  %xor117.i = xor i32 %xor110.i, %or.i58.i
  %arrayidx120.i = getelementptr i8, ptr %st, i64 15
  %30 = load i8, ptr %arrayidx120.i, align 1
  %idxprom121.i = zext i8 %30 to i64
  %arrayidx122.i = getelementptr [256 x i32], ptr @AES_mc_rot, i64 0, i64 %idxprom121.i
  %31 = load i32, ptr %arrayidx122.i, align 4
  %or.i59.i = tail call noundef i32 @llvm.fshl.i32(i32 %31, i32 %31, i32 24)
  %xor124.i = xor i32 %xor117.i, %or.i59.i
  %arrayidx130.i = getelementptr i8, ptr %r, i64 12
  store i32 %xor124.i, ptr %arrayidx130.i, align 4
  ret void
}